target datalayout = "e-m:e-p270:32:32-p271:32:32-p272:64:64-i64:64-i128:128-f80:128-n8:16:32:64-S128"
target triple = "x86_64-unknown-linux-gnu"

%struct.ggml_opt_params = type { i32, i64, i32, i32, float, i32, i8, i8, i32, %struct.anon, %struct.anon.0 }
%struct.anon = type { i32, float, float, i32, float, float, float, float, float, float, float }
%struct.anon.0 = type { i32, i32, i32, float, float, float, float, float, i32 }
%struct.train_state = type { ptr, i64, i64, i64, i64, i64, %"class.std::__cxx11::basic_string", %"class.std::__cxx11::basic_string", i64, i64 }
%"class.std::__cxx11::basic_string" = type { %"struct.std::__cxx11::basic_string<char>::_Alloc_hider", i64, %union.anon }
%"struct.std::__cxx11::basic_string<char>::_Alloc_hider" = type { ptr }
%union.anon = type { i64, [8 x i8] }
%struct.ggml_opt_context = type { ptr, %struct.ggml_opt_params, i32, i64, i8, float, float, %struct.anon.1, %struct.anon.2 }
%struct.anon.1 = type { ptr, ptr, ptr, ptr, float, float, i32 }
%struct.anon.2 = type { ptr, ptr, ptr, ptr, ptr, ptr, ptr, ptr, ptr, ptr, float, float, i32, i32, i32, i32 }

@.str = private unnamed_addr constant [1 x i8] zeroinitializer, align 1

; Function Attrs: mustprogress nounwind uwtable
define linkonce_odr void @_ZN11train_stateC2Ev(ptr noundef nonnull align 8 dereferenceable(128) %this) unnamed_addr #6 comdat align 2 {
entry:
  %this.addr = alloca ptr, align 8
  store ptr %this, ptr %this.addr, align 8
  %this1 = load ptr, ptr %this.addr, align 8
  %shuffle_rng_state_current = getelementptr inbounds %struct.train_state, ptr %this1, i32 0, i32 6
  call void @_ZNSt7__cxx1112basic_stringIcSt11char_traitsIcESaIcEEC1Ev(ptr noundef nonnull align 8 dereferenceable(32) %shuffle_rng_state_current) #3
  %shuffle_rng_state_next = getelementptr inbounds %struct.train_state, ptr %this1, i32 0, i32 7
  call void @_ZNSt7__cxx1112basic_stringIcSt11char_traitsIcESaIcEEC1Ev(ptr noundef nonnull align 8 dereferenceable(32) %shuffle_rng_state_next) #3
  ret void
}

; Function Attrs: mustprogress uwtable
define noundef ptr @_Z16init_train_statev() #4 {
entry:
  %state = alloca ptr, align 8
  %ref.tmp = alloca %struct.ggml_opt_params, align 8
  %call = call noalias noundef nonnull ptr @_Znwm(i64 noundef 128) #18
  call void @_ZN11train_stateC2Ev(ptr noundef nonnull align 8 dereferenceable(128) %call) #3
  store ptr %call, ptr %state, align 8
  %0 = load ptr, ptr %state, align 8
  %train_its = getelementptr inbounds %struct.train_state, ptr %0, i32 0, i32 1
  store i64 0, ptr %train_its, align 8
  %1 = load ptr, ptr %state, align 8
  %train_samples = getelementptr inbounds %struct.train_state, ptr %1, i32 0, i32 2
  store i64 0, ptr %train_samples, align 8
  %2 = load ptr, ptr %state, align 8
  %train_tokens = getelementptr inbounds %struct.train_state, ptr %2, i32 0, i32 3
  store i64 0, ptr %train_tokens, align 8
  %3 = load ptr, ptr %state, align 8
  %train_epochs = getelementptr inbounds %struct.train_state, ptr %3, i32 0, i32 4
  store i64 0, ptr %train_epochs, align 8
  %4 = load ptr, ptr %state, align 8
  %shuffle_samples_hash = getelementptr inbounds %struct.train_state, ptr %4, i32 0, i32 5
  store i64 0, ptr %shuffle_samples_hash, align 8
  %5 = load ptr, ptr %state, align 8
  %shuffle_sample_count = getelementptr inbounds %struct.train_state, ptr %5, i32 0, i32 8
  store i64 0, ptr %shuffle_sample_count, align 8
  %6 = load ptr, ptr %state, align 8
  %shuffle_next_sample = getelementptr inbounds %struct.train_state, ptr %6, i32 0, i32 9
  store i64 0, ptr %shuffle_next_sample, align 8
  %7 = load ptr, ptr %state, align 8
  %shuffle_rng_state_current = getelementptr inbounds %struct.train_state, ptr %7, i32 0, i32 6
  %call1 = call noundef nonnull align 8 dereferenceable(32) ptr @_ZNSt7__cxx1112basic_stringIcSt11char_traitsIcESaIcEEaSEPKc(ptr noundef nonnull align 8 dereferenceable(32) %shuffle_rng_state_current, ptr noundef @.str)
  %8 = load ptr, ptr %state, align 8
  %shuffle_rng_state_next = getelementptr inbounds %struct.train_state, ptr %8, i32 0, i32 7
  %call2 = call noundef nonnull align 8 dereferenceable(32) ptr @_ZNSt7__cxx1112basic_stringIcSt11char_traitsIcESaIcEEaSEPKc(ptr noundef nonnull align 8 dereferenceable(32) %shuffle_rng_state_next, ptr noundef @.str)
  %call3 = call noalias noundef nonnull ptr @_Znwm(i64 noundef 312) #18
  %9 = load ptr, ptr %state, align 8
  %opt = getelementptr inbounds %struct.train_state, ptr %9, i32 0, i32 0
  store ptr %call3, ptr %opt, align 8
  %10 = load ptr, ptr %state, align 8
  %opt4 = getelementptr inbounds %struct.train_state, ptr %10, i32 0, i32 0
  %11 = load ptr, ptr %opt4, align 8
  %ctx = getelementptr inbounds %struct.ggml_opt_context, ptr %11, i32 0, i32 0
  store ptr null, ptr %ctx, align 8
  call void @ggml_opt_default_params(ptr sret(%struct.ggml_opt_params) align 8 %ref.tmp, i32 noundef 0)
  %12 = load ptr, ptr %state, align 8
  %opt5 = getelementptr inbounds %struct.train_state, ptr %12, i32 0, i32 0
  %13 = load ptr, ptr %opt5, align 8
  %params = getelementptr inbounds %struct.ggml_opt_context, ptr %13, i32 0, i32 1
  call void @llvm.memcpy.p0.p0.i64(ptr align 8 %params, ptr align 8 %ref.tmp, i64 120, i1 false)
  %14 = load ptr, ptr %state, align 8
  %opt6 = getelementptr inbounds %struct.train_state, ptr %14, i32 0, i32 0
  %15 = load ptr, ptr %opt6, align 8
  %params7 = getelementptr inbounds %struct.ggml_opt_context, ptr %15, i32 0, i32 1
  %graph_size = getelementptr inbounds %struct.ggml_opt_params, ptr %params7, i32 0, i32 1
  store i64 16384, ptr %graph_size, align 8
  %16 = load ptr, ptr %state, align 8
  %opt8 = getelementptr inbounds %struct.train_state, ptr %16, i32 0, i32 0
  %17 = load ptr, ptr %opt8, align 8
  %loss_after = getelementptr inbounds %struct.ggml_opt_context, ptr %17, i32 0, i32 6
  store float 0.000000e+00, ptr %loss_after, align 8
  %18 = load ptr, ptr %state, align 8
  ret ptr %18
}