; Function Attrs: mustprogress uwtable
define noundef nonnull ptr @_Z16init_train_statev() local_unnamed_addr #3 {
entry:
  %ref.tmp = alloca %struct.ggml_opt_params, align 8
  %call = tail call noalias noundef nonnull dereferenceable(128) ptr @_Znwm(i64 noundef 128) #35
  %shuffle_rng_state_current.i = getelementptr inbounds nuw i8, ptr %call, i64 48
  tail call void @_ZNSt7__cxx1112basic_stringIcSt11char_traitsIcESaIcEEC1Ev(ptr noundef nonnull align 8 dereferenceable(32) %shuffle_rng_state_current.i) #36
  %shuffle_rng_state_next.i = getelementptr inbounds nuw i8, ptr %call, i64 80
  tail call void @_ZNSt7__cxx1112basic_stringIcSt11char_traitsIcESaIcEEC1Ev(ptr noundef nonnull align 8 dereferenceable(32) %shuffle_rng_state_next.i) #36
  %train_its = getelementptr inbounds nuw i8, ptr %call, i64 8
  %shuffle_sample_count = getelementptr inbounds nuw i8, ptr %call, i64 112
  tail call void @llvm.memset.p0.i64(ptr noundef nonnull align 8 dereferenceable(40) %train_its, i8 0, i64 40, i1 false)
  tail call void @llvm.memset.p0.i64(ptr noundef nonnull align 8 dereferenceable(16) %shuffle_sample_count, i8 0, i64 16, i1 false)
  %call1 = tail call noundef nonnull align 8 dereferenceable(32) ptr @_ZNSt7__cxx1112basic_stringIcSt11char_traitsIcESaIcEEaSEPKc(ptr noundef nonnull align 8 dereferenceable(32) %shuffle_rng_state_current.i, ptr noundef nonnull @.str)
  %call2 = tail call noundef nonnull align 8 dereferenceable(32) ptr @_ZNSt7__cxx1112basic_stringIcSt11char_traitsIcESaIcEEaSEPKc(ptr noundef nonnull align 8 dereferenceable(32) %shuffle_rng_state_next.i, ptr noundef nonnull @.str)
  %call3 = tail call noalias noundef nonnull dereferenceable(312) ptr @_Znwm(i64 noundef 312) #35
  store ptr %call3, ptr %call, align 8
  store ptr null, ptr %call3, align 8
  call void @ggml_opt_default_params(ptr nonnull sret(%struct.ggml_opt_params) align 8 %ref.tmp, i32 noundef 0)
  %0 = load ptr, ptr %call, align 8
  %params = getelementptr inbounds nuw i8, ptr %0, i64 8
  call void @llvm.memcpy.p0.p0.i64(ptr noundef nonnull align 8 dereferenceable(120) %params, ptr noundef nonnull align 8 dereferenceable(120) %ref.tmp, i64 120, i1 false)
  %1 = load ptr, ptr %call, align 8
  %graph_size = getelementptr inbounds nuw i8, ptr %1, i64 16
  store i64 16384, ptr %graph_size, align 8
  %2 = load ptr, ptr %call, align 8
  %loss_after = getelementptr inbounds nuw i8, ptr %2, i64 152
  store float 0.000000e+00, ptr %loss_after, align 8
  ret ptr %call
}